target datalayout = "e-m:e-p270:32:32-p271:32:32-p272:64:64-i64:64-i128:128-f80:128-n8:16:32:64-S128"
target triple = "x86_64-pc-linux-gnu"

%class.TInfoSink = type { %"class.glslang::TInfoSinkBase", %"class.glslang::TInfoSinkBase" }
%"class.glslang::TInfoSinkBase" = type { %"class.std::__cxx11::basic_string", i32, ptr }
%"class.std::__cxx11::basic_string" = type { %"struct.std::__cxx11::basic_string<char>::_Alloc_hider", i64, %union.anon }
%"struct.std::__cxx11::basic_string<char>::_Alloc_hider" = type { ptr }
%union.anon = type { i64, [8 x i8] }
%"struct.glslang::TSourceLoc" = type { ptr, i32, i32, i32 }

@.str.828 = private unnamed_addr constant [2 x i8] c":\00", align 1
@.str.829 = private unnamed_addr constant [3 x i8] c"? \00", align 1
@.str.830 = private unnamed_addr constant [3 x i8] c"  \00", align 1

; Function Attrs: mustprogress nounwind uwtable
define linkonce_odr noundef nonnull align 8 dereferenceable(48) ptr @_ZN7glslang13TInfoSinkBaselsEPKc(ptr noundef nonnull align 8 dereferenceable(48) %0, ptr noundef %1) #0 comdat align 2 {
  %3 = alloca ptr, align 8
  %4 = alloca ptr, align 8
  store ptr %0, ptr %3, align 8
  store ptr %1, ptr %4, align 8
  %5 = load ptr, ptr %3, align 8
  %6 = load ptr, ptr %4, align 8
  call void @_ZN7glslang13TInfoSinkBase6appendEPKc(ptr noundef nonnull align 8 dereferenceable(48) %5, ptr noundef %6)
  ret ptr %5
}

; Function Attrs: mustprogress nounwind uwtable
define internal void @_ZN7glslangL14OutputTreeTextER9TInfoSinkPK11TIntermNodei(ptr noundef nonnull align 8 dereferenceable(96) %0, ptr noundef %1, i32 noundef %2) #0 {
  %4 = alloca ptr, align 8
  %5 = alloca ptr, align 8
  %6 = alloca i32, align 4
  %7 = alloca i32, align 4
  store ptr %0, ptr %4, align 8
  store ptr %1, ptr %5, align 8
  store i32 %2, ptr %6, align 4
  %8 = load ptr, ptr %4, align 8
  %9 = getelementptr inbounds %class.TInfoSink, ptr %8, i32 0, i32 1
  %10 = load ptr, ptr %5, align 8
  %11 = load ptr, ptr %10, align 8
  %12 = getelementptr inbounds ptr, ptr %11, i64 0
  %13 = load ptr, ptr %12, align 8
  %14 = call noundef nonnull align 8 dereferenceable(24) ptr %13(ptr noundef nonnull align 8 dereferenceable(32) %10)
  %15 = getelementptr inbounds %"struct.glslang::TSourceLoc", ptr %14, i32 0, i32 1
  %16 = load i32, ptr %15, align 8
  %17 = call noundef nonnull align 8 dereferenceable(48) ptr @_ZN7glslang13TInfoSinkBaselsEi(ptr noundef nonnull align 8 dereferenceable(48) %9, i32 noundef %16)
  %18 = call noundef nonnull align 8 dereferenceable(48) ptr @_ZN7glslang13TInfoSinkBaselsEPKc(ptr noundef nonnull align 8 dereferenceable(48) %17, ptr noundef @.str.828)
  %19 = load ptr, ptr %5, align 8
  %20 = load ptr, ptr %19, align 8
  %21 = getelementptr inbounds ptr, ptr %20, i64 0
  %22 = load ptr, ptr %21, align 8
  %23 = call noundef nonnull align 8 dereferenceable(24) ptr %22(ptr noundef nonnull align 8 dereferenceable(32) %19)
  %24 = getelementptr inbounds %"struct.glslang::TSourceLoc", ptr %23, i32 0, i32 2
  %25 = load i32, ptr %24, align 4
  %26 = icmp ne i32 %25, 0
  br i1 %26, label %27, label %38

27:                                               ; preds = %3
  %28 = load ptr, ptr %4, align 8
  %29 = getelementptr inbounds %class.TInfoSink, ptr %28, i32 0, i32 1
  %30 = load ptr, ptr %5, align 8
  %31 = load ptr, ptr %30, align 8
  %32 = getelementptr inbounds ptr, ptr %31, i64 0
  %33 = load ptr, ptr %32, align 8
  %34 = call noundef nonnull align 8 dereferenceable(24) ptr %33(ptr noundef nonnull align 8 dereferenceable(32) %30)
  %35 = getelementptr inbounds %"struct.glslang::TSourceLoc", ptr %34, i32 0, i32 2
  %36 = load i32, ptr %35, align 4
  %37 = call noundef nonnull align 8 dereferenceable(48) ptr @_ZN7glslang13TInfoSinkBaselsEi(ptr noundef nonnull align 8 dereferenceable(48) %29, i32 noundef %36)
  br label %42

38:                                               ; preds = %3
  %39 = load ptr, ptr %4, align 8
  %40 = getelementptr inbounds %class.TInfoSink, ptr %39, i32 0, i32 1
  %41 = call noundef nonnull align 8 dereferenceable(48) ptr @_ZN7glslang13TInfoSinkBaselsEPKc(ptr noundef nonnull align 8 dereferenceable(48) %40, ptr noundef @.str.829)
  br label %42

42:                                               ; preds = %38, %27
  store i32 0, ptr %7, align 4
  br label %43

43:                                               ; preds = %51, %42
  %44 = load i32, ptr %7, align 4
  %45 = load i32, ptr %6, align 4
  %46 = icmp slt i32 %44, %45
  br i1 %46, label %47, label %54

47:                                               ; preds = %43
  %48 = load ptr, ptr %4, align 8
  %49 = getelementptr inbounds %class.TInfoSink, ptr %48, i32 0, i32 1
  %50 = call noundef nonnull align 8 dereferenceable(48) ptr @_ZN7glslang13TInfoSinkBaselsEPKc(ptr noundef nonnull align 8 dereferenceable(48) %49, ptr noundef @.str.830)
  br label %51

51:                                               ; preds = %47
  %52 = load i32, ptr %7, align 4
  %53 = add nsw i32 %52, 1
  store i32 %53, ptr %7, align 4
  br label %43, !llvm.loop !4

54:                                               ; preds = %43
  ret void
}