; Function Attrs: mustprogress nounwind uwtable
define internal fastcc void @_ZN7glslangL14OutputTreeTextER9TInfoSinkPK11TIntermNodei(ptr noundef nonnull align 8 dereferenceable(96) %0, ptr noundef %1, i32 noundef %2) unnamed_addr #0 {
  %4 = getelementptr inbounds nuw i8, ptr %0, i64 48
  %5 = load ptr, ptr %1, align 8
  %6 = load ptr, ptr %5, align 8
  %7 = tail call noundef nonnull align 8 dereferenceable(24) ptr %6(ptr noundef nonnull align 8 dereferenceable(32) %1) #14
  %8 = getelementptr inbounds nuw i8, ptr %7, i64 8
  %9 = load i32, ptr %8, align 8
  %10 = tail call noundef nonnull align 8 dereferenceable(48) ptr @_ZN7glslang13TInfoSinkBaselsEi(ptr noundef nonnull align 8 dereferenceable(48) %4, i32 noundef %9)
  tail call void @_ZN7glslang13TInfoSinkBase6appendEPKc(ptr noundef nonnull align 8 dereferenceable(48) %10, ptr noundef nonnull @.str.828) #14
  %11 = load ptr, ptr %1, align 8
  %12 = load ptr, ptr %11, align 8
  %13 = tail call noundef nonnull align 8 dereferenceable(24) ptr %12(ptr noundef nonnull align 8 dereferenceable(32) %1) #14
  %14 = getelementptr inbounds nuw i8, ptr %13, i64 12
  %15 = load i32, ptr %14, align 4
  %.not = icmp eq i32 %15, 0
  br i1 %.not, label %23, label %16

16:                                               ; preds = %3
  %17 = load ptr, ptr %1, align 8
  %18 = load ptr, ptr %17, align 8
  %19 = tail call noundef nonnull align 8 dereferenceable(24) ptr %18(ptr noundef nonnull align 8 dereferenceable(32) %1) #14
  %20 = getelementptr inbounds nuw i8, ptr %19, i64 12
  %21 = load i32, ptr %20, align 4
  %22 = tail call noundef nonnull align 8 dereferenceable(48) ptr @_ZN7glslang13TInfoSinkBaselsEi(ptr noundef nonnull align 8 dereferenceable(48) %4, i32 noundef %21)
  br label %24

23:                                               ; preds = %3
  tail call void @_ZN7glslang13TInfoSinkBase6appendEPKc(ptr noundef nonnull align 8 dereferenceable(48) %4, ptr noundef nonnull @.str.829) #14
  br label %24

24:                                               ; preds = %23, %16
  %25 = icmp sgt i32 %2, 0
  br i1 %25, label %.lr.ph, label %._crit_edge

.lr.ph:                                           ; preds = %24, %.lr.ph
  %.09 = phi i32 [ %26, %.lr.ph ], [ 0, %24 ]
  tail call void @_ZN7glslang13TInfoSinkBase6appendEPKc(ptr noundef nonnull align 8 dereferenceable(48) %4, ptr noundef nonnull @.str.830) #14
  %26 = add nuw nsw i32 %.09, 1
  %exitcond.not = icmp eq i32 %26, %2
  br i1 %exitcond.not, label %._crit_edge, label %.lr.ph, !llvm.loop !4

._crit_edge:                                      ; preds = %.lr.ph, %24
  ret void
}